******************************************************************************
            TI ARM Clang Linker PC v5.1.1                      
******************************************************************************
>> Linked Tue Jul  7 19:50:38 2026

OUTPUT FILE NAME:   <gpio_toggle_output.out>
ENTRY POINT SYMBOL: "_c_int00_noargs"  address: 0000b741


MEMORY CONFIGURATION

         name            origin    length      used     unused   attr    fill
----------------------  --------  ---------  --------  --------  ----  --------
  FLASH                 00000000   00020000  00010128  0000fed8  R  X
  SRAM                  20200000   00008000  00002aab  00005555  RW X
  BCR_CONFIG            41c00000   000000ff  00000000  000000ff  R   
  BSL_CONFIG            41c00100   00000080  00000000  00000080  R   


SEGMENT ALLOCATION MAP

run origin  load origin   length   init length attrs members
----------  ----------- ---------- ----------- ----- -------
00000000    00000000    00010128   00010128    r-x
  00000000    00000000    000000c0   000000c0    r-- .intvecs
  000000c0    000000c0    0000bb00   0000bb00    r-x .text
  0000bbc0    0000bbc0    00004530   00004530    r-- .rodata
  000100f0    000100f0    00000038   00000038    r-- .cinit
20200000    20200000    000028ac   00000000    rw-
  20200000    20200000    0000289f   00000000    rw- .bss
  202028a0    202028a0    0000000c   00000000    rw- .data
20207e00    20207e00    00000200   00000000    rw-
  20207e00    20207e00    00000200   00000000    rw- .stack


SECTION ALLOCATION MAP

 output                                  attributes/
section   page    origin      length       input sections
--------  ----  ----------  ----------   ----------------
.intvecs   0    00000000    000000c0     
                  00000000    000000c0     startup_mspm0g350x_ticlang.o (.intvecs)

.text      0    000000c0    0000bb00     
                  000000c0    00000c88     libc.a : _scanfi.c.obj (.text.__TI_scanfi)
                  00000d48    000008dc            : _printfi.c.obj (.text:__TI_printfi_nofloat)
                  00001624    000007fc     app_menu.o (.text.render_menu)
                  00001e20    00000760     app_image_store.o (.text.app_image_store_process_command)
                  00002580    00000724     app_image_store.o (.text.app_image_store_service)
                  00002ca4    00000708     app_car_control.o (.text.app_car_control_process_command)
                  000033ac    0000061c     app_image_store.o (.text.start_image_write)
                  000039c8    000005f8     app_car_control.o (.text.app_car_control_update)
                  00003fc0    000004e0     hw_lcd.o (.text.LCD_ShowChar)
                  000044a0    00000494     hw_lcd.o (.text.LCD_Fill)
                  00004934    00000438     hw_w25q64.o (.text.w25q64_read_jedec_id)
                  00004d6c    00000408     app_menu.o (.text.app_menu_update)
                  00005174    000003b0     app_motion_control.o (.text.motion_control_parse_command)
                  00005524    000003b0     libc.a : strtod.c.obj (.text.strtod)
                  000058d4    0000035c     hw_w25q64.o (.text.w25q64_write)
                  00005c30    00000354     hw_w25q64.o (.text.w25q64_send_address)
                  00005f84    00000350     libc.a : strtof.c.obj (.text.strtof)
                  000062d4    0000030c     hw_lcd.o (.text.lcd_init)
                  000065e0    000002dc     libc.a : divdf3_fast.c.obj (.text.__divdf3_fast)
                  000068bc    000002ac     bsp_jy61.o (.text.jy61_probe_baudrate)
                  00006b68    000002a8     app_attitude.o (.text.app_attitude_process_command)
                  00006e10    00000268     app_car_control.o (.text.app_car_control_send_telemetry)
                  00007078    00000240     hw_w25q64.o (.text.w25q64_read)
                  000072b8    00000208     hw_w25q64.o (.text.w25q64_wait_ready)
                  000074c0    000001dc     libc.a : strtoll.c.obj (.text.strtoll)
                  0000769c    000001d8            : muldf3_fast.c.obj (.text.__muldf3_fast)
                  00007874    000001d8     main.o (.text.main)
                  00007a4c    000001d0     hw_w25q64.o (.text.w25q64_erase_sector)
                  00007c1c    000001c8     app_car_control.o (.text.send_status)
                  00007de4    000001b0     app_image_store.o (.text.app_image_store_get_file_count)
                  00007f94    00000192     libclang_rt.builtins.a : adddf3.S.obj (.text)
                  00008126    00000002     startup_mspm0g350x_ticlang.o (.text.Default_Handler)
                  00008128    0000017c     app_image_store.o (.text.ensure_index)
                  000082a4    00000168     libc.a : strtoull.c.obj (.text.strtoull)
                  0000840c    00000164     app_image_store.o (.text.delete_image_id)
                  00008570    0000015c     bsp_jy61.o (.text.process_byte)
                  000086cc    00000144     app_attitude.o (.text.send_jy61_status)
                  00008810    00000144     libc.a : strtol.c.obj (.text.strtol)
                  00008954    00000140     app_motion_control.o (.text.motion_control_update)
                  00008a94    00000138     bsp_jy61.o (.text.jy61_set_baudrate)
                  00008bcc    00000134     hw_uart.o (.text.uart_debug_read_line)
                  00008d00    0000012c     libc.a : strtoul.c.obj (.text.strtoul)
                  00008e2c    00000120     app_image_store.o (.text.display_image)
                  00008f4c    00000108     app_car_control.o (.text.set_motor_duty)
                  00009054    00000104     driverlib.a : dl_timer.o (.text.DL_Timer_initFourCCPWMMode)
                  00009158    00000100     bsp_jy61.o (.text.jy61_configure_output)
                  00009258    000000f8     ti_msp_dl_config.o (.text.SYSCFG_DL_GPIO_init)
                  00009350    000000f4     app_car_control.o (.text.update_lturn)
                  00009444    000000e4     app_image_store.o (.text.app_image_store_get_file_by_index)
                  00009528    000000dc     libc.a : s_scalbn.c.obj (.text.scalbn)
                  00009604    000000d8     libclang_rt.builtins.a : addsf3.S.obj (.text)
                  000096dc    000000c4     main.o (.text.SysTick_Handler)
                  000097a0    000000c4     bsp_jy61.o (.text.jy61_read_debug)
                  00009864    000000c0     app_attitude.o (.text.app_attitude_send)
                  00009924    000000bc     libc.a : s_scalbnf.c.obj (.text.scalbnf)
                  000099e0    000000b0     bsp_jy61.o (.text.jy61_init)
                  00009a90    000000ac     hw_lcd.o (.text.LCD_Address_Set)
                  00009b3c    000000a4     mid_pid.o (.text.pid_calc)
                  00009be0    000000a4     hw_openmv_uart.o (.text.uart_openmv_read_line)
                  00009c84    000000a2     libclang_rt.builtins.a : udivmoddi4.S.obj (.text)
                  00009d26    00000002                            : aeabi_div0.c.obj (.text.__aeabi_idiv0)
                  00009d28    000000a0     bsp_jy61.o (.text.jy61_zero_yaw)
                  00009dc8    0000009c     app_line_follow.o (.text.line_follow_parse_command)
                  00009e64    0000009c     app_attitude.o (.text.process_jy61_baud_command)
                  00009f00    0000009c     app_attitude.o (.text.scan_jy61_baudrate)
                  00009f9c    0000009a     libc.a : memcpy16.S.obj (.text:memcpy)
                  0000a036    00000002     libclang_rt.builtins.a : aeabi_div0.c.obj (.text.__aeabi_ldiv0)
                  0000a038    00000094     hw_encoder.o (.text.encoder_handle_gpio_irq)
                  0000a0cc    00000090     app_car_control.o (.text.send_motor_ack)
                  0000a15c    0000008c     libclang_rt.builtins.a : comparesf2.S.obj (.text)
                  0000a1e8    0000008c                            : mulsf3.S.obj (.text)
                  0000a274    00000088     app_image_store.o (.text.app_image_store_show_image)
                  0000a2fc    00000004     libsysbm.a : hostexit.c.obj (.text.HOSTexit)
                  0000a300    00000088     libc.a : strcmp-armv6m.S.obj (.text:strcmp)
                  0000a388    00000082     libclang_rt.builtins.a : divsf3.S.obj (.text)
                  0000a40a    00000002     --HOLE-- [fill = 0]
                  0000a40c    0000007c     ti_msp_dl_config.o (.text.SYSCFG_DL_UART_DEBUG_init)
                  0000a488    0000007c     ti_msp_dl_config.o (.text.SYSCFG_DL_UART_JY61P_init)
                  0000a504    0000007c     ti_msp_dl_config.o (.text.SYSCFG_DL_UART_OPENMV_init)
                  0000a580    0000007c     bsp_jy61.o (.text.jy61_read_angles)
                  0000a5fc    0000007c     libc.a : copy_decompress_lzss.c.obj (.text:decompress:lzss)
                  0000a678    00000078     app_line_follow.o (.text.line_follow_get_turn_adjust)
                  0000a6f0    00000078     app_image_store.o (.text.sanitize_name)
                  0000a768    00000074     libclang_rt.builtins.a : comparedf2.c.obj (.text.__gedf2)
                  0000a7dc    00000074     libc.a : sscanf.c.obj (.text._chkmbc)
                  0000a850    00000074     libclang_rt.builtins.a : truncdfsf2.S.obj (.text)
                  0000a8c4    00000070     ti_msp_dl_config.o (.text.SYSCFG_DL_initPower)
                  0000a934    00000070     bsp_jy61.o (.text.jy61_poll)
                  0000a9a4    00000070     hw_uart.o (.text.uart_debug_handle_irq)
                  0000aa14    00000070     hw_openmv_uart.o (.text.uart_openmv_handle_irq)
                  0000aa84    0000006c     ti_msp_dl_config.o (.text.SYSCFG_DL_PWM_LEFT_init)
                  0000aaf0    0000006c     ti_msp_dl_config.o (.text.SYSCFG_DL_PWM_RIGHT_init)
                  0000ab5c    0000006c     app_car_control.o (.text.app_car_control_init)
                  0000abc8    0000006c     app_menu.o (.text.app_menu_init)
                  0000ac34    0000006c     bsp_jy61.o (.text.jy61_handle_irq)
                  0000aca0    00000068     libclang_rt.builtins.a : comparedf2.c.obj (.text.__ledf2)
                  0000ad08    00000068     bsp_jy61.o (.text.jy61_read_quaternion)
                  0000ad70    00000064     bsp_tb6612.o (.text.TB6612_Init)
                  0000add4    00000062     libc.a : memset16.S.obj (.text:memset)
                  0000ae36    00000002     --HOLE-- [fill = 0]
                  0000ae38    00000060     bsp_tb6612.o (.text.BO_Control)
                  0000ae98    0000005a     libclang_rt.builtins.a : aeabi_dcmp.S.obj (.text)
                  0000aef2    00000002     --HOLE-- [fill = 0]
                  0000aef4    0000005a                            : aeabi_fcmp.S.obj (.text)
                  0000af4e    00000002     --HOLE-- [fill = 0]
                  0000af50    00000058     bsp_tb6612.o (.text.AO_Control)
                  0000afa8    00000054     app_car_control.o (.text.send_pulse_ack)
                  0000affc    0000004c     bsp_tb6612.o (.text.TB6612_Motor_Stop)
                  0000b048    0000004c     hw_uart.o (.text.uart_debug_service_tx)
                  0000b094    0000004c     hw_uart.o (.text.uart_debug_write_string)
                  0000b0e0    0000004a     hw_lcd.o (.text.LCD_ShowString)
                  0000b12a    00000002     --HOLE-- [fill = 0]
                  0000b12c    00000048     driverlib.a : dl_uart.o (.text.DL_UART_init)
                  0000b174    00000048     ti_msp_dl_config.o (.text.SYSCFG_DL_SPI_LCD_init)
                  0000b1bc    00000048     ti_msp_dl_config.o (.text.SYSCFG_DL_init)
                  0000b204    00000048     hw_encoder.o (.text.encoder_init)
                  0000b24c    00000048     libc.a : snprintf.c.obj (.text.snprintf)
                  0000b294    00000044     driverlib.a : dl_spi.o (.text.DL_SPI_init)
                  0000b2d8    00000044     app_car_control.o (.text.app_car_control_send_heartbeat)
                  0000b31c    00000044     libc.a : atoi.c.obj (.text.atoi)
                  0000b360    00000040     ti_msp_dl_config.o (.text.SYSCFG_DL_SYSCTL_init)
                  0000b3a0    00000040     libclang_rt.builtins.a : aeabi_uidivmod.S.obj (.text)
                  0000b3e0    0000003c     app_motion_control.o (.text.motion_control_init)
                  0000b41c    0000003c     libc.a : autoinit.c.obj (.text:__TI_auto_init_nobinit_nopinit)
                  0000b458    0000003c     libclang_rt.builtins.a : floatsisf.S.obj (.text)
                  0000b494    0000003a                            : muldsi3.S.obj (.text)
                  0000b4ce    00000002     --HOLE-- [fill = 0]
                  0000b4d0    00000038     hw_uart.o (.text.uart_debug_read_byte)
                  0000b508    00000038     libclang_rt.builtins.a : fixsfsi.S.obj (.text)
                  0000b540    00000034     app_attitude.o (.text.app_attitude_init)
                  0000b574    00000032     libc.a : snprintf.c.obj (.text._outs)
                  0000b5a6    00000002     --HOLE-- [fill = 0]
                  0000b5a8    00000032     libclang_rt.builtins.a : fixunssfsi.S.obj (.text)
                  0000b5da    00000002     --HOLE-- [fill = 0]
                  0000b5dc    00000030     driverlib.a : dl_uart.o (.text.DL_UART_transmitDataBlocking)
                  0000b60c    00000030     app_line_follow.o (.text.line_follow_is_valid)
                  0000b63c    00000030     app_car_control.o (.text.send_unknown_command)
                  0000b66c    00000030     libc.a : sscanf.c.obj (.text.sscanf)
                  0000b69c    0000002c     app_image_store.o (.text.show_legacy_slot)
                  0000b6c8    00000028     app_line_follow.o (.text.line_follow_is_active)
                  0000b6f0    00000028     hw_uart.o (.text.uart_debug_init)
                  0000b718    00000028     hw_openmv_uart.o (.text.uart_openmv_init)
                  0000b740    00000028     libc.a : boot_cortex_m.c.obj (.text:_c_int00_noargs)
                  0000b768    00000028     libclang_rt.builtins.a : floatunsisf.S.obj (.text)
                  0000b790    00000024     app_line_follow.o (.text.line_follow_init)
                  0000b7b4    00000024     hw_w25q64.o (.text.w25q64_is_valid_jedec_id)
                  0000b7d8    00000024     libclang_rt.builtins.a : muldi3.S.obj (.text)
                  0000b7fc    00000022     libc.a : memccpy.c.obj (.text.memccpy)
                  0000b81e    00000022     app_car_control.o (.text.strlen)
                  0000b840    0000001e     libclang_rt.builtins.a : ashldi3.S.obj (.text)
                  0000b85e    00000002     --HOLE-- [fill = 0]
                  0000b860    0000001c     driverlib.a : dl_timer.o (.text.DL_Timer_setCaptCompUpdateMethod)
                  0000b87c    0000001c                 : dl_timer.o (.text.DL_Timer_setClockConfig)
                  0000b898    0000001c                 : dl_uart.o (.text.DL_UART_receiveDataCheck)
                  0000b8b4    0000001c                 : dl_uart.o (.text.DL_UART_transmitDataCheck)
                  0000b8d0    0000001c     hw_spi.o (.text.spi_write_bus)
                  0000b8ec    0000001c     hw_w25q64.o (.text.w25q64_init)
                  0000b908    0000001a     libclang_rt.builtins.a : aeabi_memset.S.obj (.text)
                  0000b922    00000002     --HOLE-- [fill = 0]
                  0000b924    00000018     driverlib.a : dl_timer.o (.text.DL_Timer_setCaptureCompareOutCtl)
                  0000b93c    00000018     hw_lcd.o (.text.LCD_WR_DATA8)
                  0000b954    00000018     libc.a : snprintf.c.obj (.text._outc)
                  0000b96c    00000018     hw_encoder.o (.text.encoder_get_counts)
                  0000b984    00000018     hw_encoder.o (.text.encoder_reset)
                  0000b99c    00000018     mid_pid.o (.text.pid_init)
                  0000b9b4    00000014     libc.a : sscanf.c.obj (.text._inpchar)
                  0000b9c8    00000014     app_attitude.o (.text.app_attitude_poll)
                  0000b9dc    00000014     libclang_rt.builtins.a : aeabi_uldivmod.S.obj (.text)
                  0000b9f0    00000012     driverlib.a : dl_spi.o (.text.DL_SPI_setClockConfig)
                  0000ba02    00000012                 : dl_uart.o (.text.DL_UART_setClockConfig)
                  0000ba14    00000012     libc.a : copy_decompress_none.c.obj (.text:decompress:none)
                  0000ba26    00000002     --HOLE-- [fill = 0]
                  0000ba28    00000010     driverlib.a : dl_timer.o (.text.DL_Timer_setCaptureCompareValue)
                  0000ba38    00000010     app_car_control.o (.text.app_car_control_toggle_status_led)
                  0000ba48    00000010     app_motion_control.o (.text.motion_control_get_target_deg_s)
                  0000ba58    00000010     app_motion_control.o (.text.motion_control_get_target_mm_s)
                  0000ba68    00000010     app_motion_control.o (.text.motion_control_is_active)
                  0000ba78    00000010     libc.a : wcslen.c.obj (.text.wcslen)
                  0000ba88    00000010            : copy_zero_init.c.obj (.text:decompress:ZI)
                  0000ba98    0000000e            : _printfi.c.obj (.text.strlen)
                  0000baa6    00000002     --HOLE-- [fill = 0]
                  0000baa8    0000000c     app_image_store.o (.text.app_image_store_is_receiving)
                  0000bab4    0000000c     bsp_jy61.o (.text.jy61_get_baudrate)
                  0000bac0    0000000c     app_line_follow.o (.text.line_follow_get_error)
                  0000bacc    0000000c     app_motion_control.o (.text.motion_control_get_mode)
                  0000bad8    0000000c     app_motion_control.o (.text.motion_control_is_busy)
                  0000bae4    0000000c     mid_pid.o (.text.pid_reset)
                  0000baf0    0000000c     hw_uart.o (.text.uart_debug_get_rx_dropped_bytes)
                  0000bafc    0000000c     hw_uart.o (.text.uart_debug_get_tx_dropped_bytes)
                  0000bb08    0000000a     driverlib.a : dl_common.o (.text.DL_Common_delayCycles)
                  0000bb12    0000000a     libc.a : _scanfi.c.obj (.text.OUTLINED_FUNCTION_0)
                  0000bb1c    00000008     main.o (.text.GROUP1_IRQHandler)
                  0000bb24    00000008     libc.a : strtod.c.obj (.text.OUTLINED_FUNCTION_0)
                  0000bb2c    00000008            : strtof.c.obj (.text.OUTLINED_FUNCTION_0)
                  0000bb34    00000008            : _scanfi.c.obj (.text.OUTLINED_FUNCTION_1)
                  0000bb3c    00000008            : strtod.c.obj (.text.OUTLINED_FUNCTION_1)
                  0000bb44    00000010     libclang_rt.builtins.a : aeabi_dcmp.S.obj (.tramp.__aeabi_dcmpeq.1)
                  0000bb54    00000008     libc.a : _scanfi.c.obj (.text.OUTLINED_FUNCTION_2)
                  0000bb5c    00000008     main.o (.text.UART0_IRQHandler)
                  0000bb64    00000008     main.o (.text.UART1_IRQHandler)
                  0000bb6c    00000008     main.o (.text.UART2_IRQHandler)
                  0000bb74    00000008     libclang_rt.builtins.a : aeabi_ddiv.c.obj (.text.__aeabi_ddiv_fast)
                  0000bb7c    00000008                            : aeabi_dmul.c.obj (.text.__aeabi_dmul_fast)
                  0000bb84    00000008     libc.a : aeabi_portable.c.obj (.text.__aeabi_errno_addr)
                  0000bb8c    00000008            : sscanf.c.obj (.text._uninpchar)
                  0000bb94    00000008     app_image_store.o (.text.app_image_store_init)
                  0000bb9c    00000008     libclang_rt.builtins.a : aeabi_memcpy.S.obj (.text)
                  0000bba4    00000006     libc.a : _scanfi.c.obj (.text.OUTLINED_FUNCTION_3)
                  0000bbaa    00000006            : _scanfi.c.obj (.text.OUTLINED_FUNCTION_4)
                  0000bbb0    00000006            : exit.c.obj (.text:abort)
                  0000bbb6    00000004     startup_mspm0g350x_ticlang.o (.text.Reset_Handler)
                  0000bbba    00000004     libc.a : pre_init.c.obj (.text._system_pre_init)
                  0000bbbe    00000002     --HOLE-- [fill = 0]

.cinit     0    000100f0    00000038     
                  000100f0    0000000d     (.cinit..data.load) [load image, compression = lzss]
                  000100fd    00000003     --HOLE-- [fill = 0]
                  00010100    0000000c     (__TI_handler_table)
                  0001010c    00000008     (.cinit..bss.load) [load image, compression = zero_init]
                  00010114    00000010     (__TI_cinit_table)
                  00010124    00000004     --HOLE-- [fill = 0]

.rodata    0    0000bbc0    00004530     
                  0000bbc0    000017c0     hw_lcd.o (.rodata.ascii_3216)
                  0000d380    000011d0     hw_lcd.o (.rodata.ascii_2412)
                  0000e550    000005f0     hw_lcd.o (.rodata.ascii_1608)
                  0000eb40    00000474     hw_lcd.o (.rodata.ascii_1206)
                  0000efb4    0000000c     app_car_control.o (.rodata.str1.10416396766295915984.1)
                  0000efc0    00000400     app_image_store.o (.rodata..L.crctable)
                  0000f3c0    00000101     libc.a : aeabi_ctype.S.obj (.rodata:__aeabi_ctype_table_)
                  0000f4c1    000000aa     app_attitude.o (.rodata.str1.12678294702289295633.1)
                  0000f56b    00000090     app_car_control.o (.rodata.str1.5259596890075649042.1)
                  0000f5fb    00000005     app_menu.o (.rodata.str1.1152731303948041579.1)
                  0000f600    00000080     libc.a : strtod.c.obj (.rodata.digits)
                  0000f680    00000077     app_car_control.o (.rodata.str1.14175076128169481003.1)
                  0000f6f7    00000064     app_attitude.o (.rodata.str1.7524948951623268457.1)
                  0000f75b    0000004f     app_car_control.o (.rodata.str1.5964142759088803818.1)
                  0000f7aa    00000006     libc.a : _scanfi.c.obj (.rodata._sproc_int.barr)
                  0000f7b0    00000048            : strtod.c.obj (.rodata.powerof10)
                  0000f7f8    00000041     app_image_store.o (.rodata.str1.3315526320607120612.1)
                  0000f839    00000003     ti_msp_dl_config.o (.rodata.gPWM_LEFTClockConfig)
                  0000f83c    00000040     libc.a : strtof.c.obj (.rodata.digits)
                  0000f87c    00000038     app_car_control.o (.rodata.str1.11820653816532915241.1)
                  0000f8b4    00000030     app_menu.o (.rodata.gControlActions)
                  0000f8e4    00000030     app_image_store.o (.rodata.str1.7116285585965412896.1)
                  0000f914    0000002d     app_attitude.o (.rodata.str1.6752101502054803375.1)
                  0000f941    0000002a     app_attitude.o (.rodata.str1.8768218251077458445.1)
                  0000f96b    00000028     app_attitude.o (.rodata.str1.10552932612988208341.1)
                  0000f993    00000027     app_image_store.o (.rodata.str1.1022218113181972255.1)
                  0000f9ba    0000001c     app_image_store.o (.rodata.str1.14140011708520654533.1)
                  0000f9d6    0000001b     app_car_control.o (.rodata.str1.11767702346173402250.1)
                  0000f9f1    0000001b     app_car_control.o (.rodata.str1.7412545083657853309.1)
                  0000fa0c    00000019     app_attitude.o (.rodata.str1.13118626032209432180.1)
                  0000fa25    00000019     app_image_store.o (.rodata.str1.88736359541321483.1)
                  0000fa3e    00000002     ti_msp_dl_config.o (.rodata.gSPI_LCD_clockConfig)
                  0000fa40    00000018     libc.a : strtof.c.obj (.rodata.powerof10)
                  0000fa58    00000018     app_image_store.o (.rodata.str1.10771746842938527832.1)
                  0000fa70    00000018     app_attitude.o (.rodata.str1.2432380418576062097.1)
                  0000fa88    00000017     app_car_control.o (.rodata.str1.14718060586108094866.1)
                  0000fa9f    00000017     app_image_store.o (.rodata.str1.7208172818732810984.1)
                  0000fab6    00000016     app_image_store.o (.rodata.str1.14325169853327357086.1)
                  0000facc    00000016     app_image_store.o (.rodata.str1.192982350882974882.1)
                  0000fae2    00000016     app_image_store.o (.rodata.str1.3943128210769034708.1)
                  0000faf8    00000016     app_car_control.o (.rodata.str1.5648599197474771290.1)
                  0000fb0e    00000016     app_image_store.o (.rodata.str1.7788371886631451480.1)
                  0000fb24    00000015     app_image_store.o (.rodata.str1.18255799002341319570.1)
                  0000fb39    00000015     app_image_store.o (.rodata.str1.6620573711617949968.1)
                  0000fb4e    00000014     app_car_control.o (.rodata.str1.11441606736553431316.1)
                  0000fb62    00000014     app_image_store.o (.rodata.str1.15089797052171653355.1)
                  0000fb76    00000014     app_image_store.o (.rodata.str1.3333276576617639139.1)
                  0000fb8a    00000014     app_image_store.o (.rodata.str1.7232703196782369634.1)
                  0000fb9e    00000013     app_menu.o (.rodata.str1.10179918132242277246.1)
                  0000fbb1    00000013     app_image_store.o (.rodata.str1.10509079851279419267.1)
                  0000fbc4    00000013     app_image_store.o (.rodata.str1.16276858914226573060.1)
                  0000fbd7    00000013     app_menu.o (.rodata.str1.17019962864983933259.1)
                  0000fbea    00000013     app_attitude.o (.rodata.str1.8728343829806117875.1)
                  0000fbfd    00000012     hw_uart.o (.rodata.str1.2093199925178161188.1)
                  0000fc0f    00000012     app_car_control.o (.rodata.str1.3663651136879122161.1)
                  0000fc21    00000012     app_image_store.o (.rodata.str1.5298027731853985607.1)
                  0000fc33    00000011     libc.a : _printfi.c.obj (.rodata.str1.10348868589481759720.1)
                  0000fc44    00000011     app_image_store.o (.rodata.str1.13100746637483118525.1)
                  0000fc55    00000011     app_image_store.o (.rodata.str1.14924896683467369587.1)
                  0000fc66    00000011     libc.a : _printfi.c.obj (.rodata.str1.15363888844622738466.1)
                  0000fc77    00000011     app_image_store.o (.rodata.str1.18007641529385435886.1)
                  0000fc88    00000011     app_menu.o (.rodata.str1.2227258521325309534.1)
                  0000fc99    00000011     app_image_store.o (.rodata.str1.499212061291446025.1)
                  0000fcaa    00000011     app_image_store.o (.rodata.str1.6896973632456159792.1)
                  0000fcbb    00000011     app_menu.o (.rodata.str1.7531628254874797983.1)
                  0000fccc    00000011     app_image_store.o (.rodata.str1.8001765060508804488.1)
                  0000fcdd    00000010     app_image_store.o (.rodata.str1.10030303806669008466.1)
                  0000fced    00000010     app_menu.o (.rodata.str1.14126570398133045751.1)
                  0000fcfd    00000010     app_image_store.o (.rodata.str1.1633866612525549658.1)
                  0000fd0d    00000010     app_menu.o (.rodata.str1.17095892086526201591.1)
                  0000fd1d    00000010     app_attitude.o (.rodata.str1.17537195037462092868.1)
                  0000fd2d    00000010     app_menu.o (.rodata.str1.236204657446602858.1)
                  0000fd3d    00000010     app_menu.o (.rodata.str1.2502805813946034081.1)
                  0000fd4d    00000010     app_attitude.o (.rodata.str1.401295218559232509.1)
                  0000fd5d    00000010     app_image_store.o (.rodata.str1.4953579345119954976.1)
                  0000fd6d    00000010     app_attitude.o (.rodata.str1.6782492159512457147.1)
                  0000fd7d    0000000f     app_image_store.o (.rodata.str1.10719668412084469107.1)
                  0000fd8c    0000000f     app_attitude.o (.rodata.str1.12375382654845902287.1)
                  0000fd9b    0000000f     app_image_store.o (.rodata.str1.15254584463968736402.1)
                  0000fdaa    0000000f     app_attitude.o (.rodata.str1.15499469300449287954.1)
                  0000fdb9    0000000f     app_image_store.o (.rodata.str1.17058307470283294006.1)
                  0000fdc8    0000000f     app_image_store.o (.rodata.str1.4896484217139496724.1)
                  0000fdd7    0000000f     app_image_store.o (.rodata.str1.675336549761521282.1)
                  0000fde6    0000000f     app_menu.o (.rodata.str1.7701684975333963447.1)
                  0000fdf5    0000000f     app_attitude.o (.rodata.str1.8165882371521057139.1)
                  0000fe04    0000000f     app_image_store.o (.rodata.str1.922866183752400037.1)
                  0000fe13    0000000f     app_menu.o (.rodata.str1.9507348189867938020.1)
                  0000fe22    0000000e     app_image_store.o (.rodata.str1.12518459513636896009.1)
                  0000fe30    0000000e     app_menu.o (.rodata.str1.12774373472051410650.1)
                  0000fe3e    0000000e     app_image_store.o (.rodata.str1.17701700798736101906.1)
                  0000fe4c    0000000d     app_car_control.o (.rodata.str1.11272716704398869594.1)
                  0000fe59    0000000d     app_menu.o (.rodata.str1.13024445473359218120.1)
                  0000fe66    0000000d     app_menu.o (.rodata.str1.13291200952344795083.1)
                  0000fe73    0000000d     app_menu.o (.rodata.str1.16205392958640528880.1)
                  0000fe80    0000000d     app_car_control.o (.rodata.str1.4874208870431229975.1)
                  0000fe8d    0000000d     app_menu.o (.rodata.str1.5248584222339851319.1)
                  0000fe9a    0000000d     app_car_control.o (.rodata.str1.7569317419661685027.1)
                  0000fea7    0000000c     app_car_control.o (.rodata.str1.10986280395233754576.1)
                  0000feb3    0000000c     app_image_store.o (.rodata.str1.12458800325358982136.1)
                  0000febf    0000000c     app_menu.o (.rodata.str1.14486978520946485314.1)
                  0000fecb    0000000c     app_car_control.o (.rodata.str1.16566837512891204500.1)
                  0000fed7    0000000c     app_car_control.o (.rodata.str1.26950527303777515.1)
                  0000fee3    0000000c     app_car_control.o (.rodata.str1.2882403439750828858.1)
                  0000feef    0000000c     app_car_control.o (.rodata.str1.6493979626155181994.1)
                  0000fefb    0000000c     app_menu.o (.rodata.str1.8365603212124221852.1)
                  0000ff07    0000000b     main.o (.rodata.str1.17100691992556644108.1)
                  0000ff12    0000000b     app_car_control.o (.rodata.str1.1822894261428252022.1)
                  0000ff1d    0000000b     app_image_store.o (.rodata.str1.453317182575259710.1)
                  0000ff28    0000000a     ti_msp_dl_config.o (.rodata.gSPI_LCD_config)
                  0000ff32    0000000a     ti_msp_dl_config.o (.rodata.gUART_DEBUGConfig)
                  0000ff3c    0000000a     ti_msp_dl_config.o (.rodata.gUART_JY61PConfig)
                  0000ff46    0000000a     ti_msp_dl_config.o (.rodata.gUART_OPENMVConfig)
                  0000ff50    0000000a     app_car_control.o (.rodata.str1.12484813675258476528.1)
                  0000ff5a    0000000a     main.o (.rodata.str1.15159059442110792349.1)
                  0000ff64    0000000a     app_image_store.o (.rodata.str1.17298955117559882846.1)
                  0000ff6e    0000000a     app_image_store.o (.rodata.str1.17518596821781156186.1)
                  0000ff78    0000000a     app_car_control.o (.rodata.str1.2972993705525450585.1)
                  0000ff82    0000000a     app_car_control.o (.rodata.str1.6044509230432320655.1)
                  0000ff8c    0000000a     app_menu.o (.rodata.str1.7877668351663821929.1)
                  0000ff96    0000000a     app_menu.o (.rodata.str1.8374456079885623809.1)
                  0000ffa0    0000000a     app_menu.o (.rodata.str1.8587423524971408815.1)
                  0000ffaa    0000000a     app_car_control.o (.rodata.str1.9822639397776744045.1)
                  0000ffb4    00000009     app_image_store.o (.rodata.str1.12600685386380521834.1)
                  0000ffbd    00000009     libc.a : _scanfi.c.obj (.rodata.str1.12964984209033246150.1)
                  0000ffc6    00000009     app_image_store.o (.rodata.str1.14597090408004562942.1)
                  0000ffcf    00000009     app_menu.o (.rodata.str1.7729255960333412300.1)
                  0000ffd8    00000009     app_car_control.o (.rodata.str1.8898464879457977813.1)
                  0000ffe1    00000009     app_car_control.o (.rodata.str1.9984945524575007645.1)
                  0000ffea    00000002     ti_msp_dl_config.o (.rodata.gUART_DEBUGClockConfig)
                  0000ffec    00000008     ti_msp_dl_config.o (.rodata.gPWM_LEFTConfig)
                  0000fff4    00000008     ti_msp_dl_config.o (.rodata.gPWM_RIGHTConfig)
                  0000fffc    00000008     app_menu.o (.rodata.str1.11932593214074061278.1)
                  00010004    00000008     app_car_control.o (.rodata.str1.12234416300867838885.1)
                  0001000c    00000008     app_attitude.o (.rodata.str1.17338460916662203045.1)
                  00010014    00000008     app_menu.o (.rodata.str1.5986042308352981742.1)
                  0001001c    00000008     app_image_store.o (.rodata.str1.6032708027505727261.1)
                  00010024    00000008     app_attitude.o (.rodata.str1.9874728349693388622.1)
                  0001002c    00000007     libc.a : _scanfi.c.obj (.rodata._sproc_int.flit)
                  00010033    00000007     app_car_control.o (.rodata.str1.13032410439314695910.1)
                  0001003a    00000007     app_image_store.o (.rodata.str1.13682038726605492326.1)
                  00010041    00000007     app_attitude.o (.rodata.str1.13831501240740541083.1)
                  00010048    00000007     app_menu.o (.rodata.str1.14706561077188554416.1)
                  0001004f    00000007     app_menu.o (.rodata.str1.1551400316678538729.1)
                  00010056    00000007     app_attitude.o (.rodata.str1.16607386373136019299.1)
                  0001005d    00000007     app_menu.o (.rodata.str1.2963573859074234144.1)
                  00010064    00000007     app_attitude.o (.rodata.str1.3445491599604826322.1)
                  0001006b    00000007     app_menu.o (.rodata.str1.5646529578594857381.1)
                  00010072    00000007     app_attitude.o (.rodata.str1.7011054452338935499.1)
                  00010079    00000007     main.o (.rodata.str1.8154729771448623357.1)
                  00010080    00000007     app_menu.o (.rodata.str1.888971180331502718.1)
                  00010087    00000006     app_car_control.o (.rodata.str1.10099187617512664200.1)
                  0001008d    00000006     app_line_follow.o (.rodata.str1.13577393985823711167.1)
                  00010093    00000006     app_menu.o (.rodata.str1.15264288196382591912.1)
                  00010099    00000006     app_motion_control.o (.rodata.str1.15845094093975241062.1)
                  0001009f    00000006     app_attitude.o (.rodata.str1.3919908913252114906.1)
                  000100a5    00000006     app_motion_control.o (.rodata.str1.4383496431151190140.1)
                  000100ab    00000006     app_attitude.o (.rodata.str1.8499773590557895145.1)
                  000100b1    00000006     app_menu.o (.rodata.str1.8778062457141544432.1)
                  000100b7    00000005     app_car_control.o (.rodata.str1.14187085924937509073.1)
                  000100bc    00000005     app_attitude.o (.rodata.str1.14362554010302191111.1)
                  000100c1    00000005     app_car_control.o (.rodata.str1.14880763104044842744.1)
                  000100c6    00000005     app_menu.o (.rodata.str1.17370931082652322430.1)
                  000100cb    00000004     app_car_control.o (.rodata.str1.15872741239078135150.1)
                  000100cf    00000004     app_car_control.o (.rodata.str1.1972896047161163948.1)
                  000100d3    00000004     libc.a : _scanfi.c.obj (.rodata.str1.3403580589742030990.1)
                  000100d7    00000004     app_attitude.o (.rodata.str1.4164992248460084130.1)
                  000100db    00000003     ti_msp_dl_config.o (.rodata.gPWM_RIGHTClockConfig)
                  000100de    00000003     app_car_control.o (.rodata.str1.10785656375763943663.1)
                  000100e1    00000003     app_image_store.o (.rodata.str1.16994630871187842618.1)
                  000100e4    00000003     app_motion_control.o (.rodata.str1.825203759767528237.1)
                  000100e7    00000002     ti_msp_dl_config.o (.rodata.gUART_JY61PClockConfig)
                  000100e9    00000002     ti_msp_dl_config.o (.rodata.gUART_OPENMVClockConfig)
                  000100eb    00000005     --HOLE-- [fill = 0]

.init_array 
*          0    00000000    00000000     UNINITIALIZED

.binit     0    00000000    00000000     

.bss       0    20200000    0000289f     UNINITIALIZED
                  20200000    00001680     app_image_store.o (.bss.gIndexCompactEntries)
                  20201680    00000800     hw_uart.o (.bss.gUartTxBuffer)
                  20201e80    00000400     hw_uart.o (.bss.gUartRxBuffer)
                  20202280    00000100     app_image_store.o (.bss.gDisplayBuffer)
                  20202380    00000100     app_image_store.o (.bss.gRxBuffer)
                  20202480    000000bc     (.common:gPWM_LEFTBackup)
                  2020253c    000000bc     (.common:gPWM_RIGHTBackup)
                  202025f8    00000080     hw_openmv_uart.o (.bss.gOpenmvRxBuffer)
                  20202678    00000040     hw_uart.o (.bss.uart_debug_read_line.rxLine)
                  202026b8    00000028     (.common:gSPI_LCDBackup)
                  202026e0    00000024     app_car_control.o (.bss.gLeftSpeedPid)
                  20202704    00000024     app_car_control.o (.bss.gRightSpeedPid)
                  20202728    00000020     app_menu.o (.bss.gMessage)
                  20202748    00000020     hw_openmv_uart.o (.bss.uart_openmv_read_line.rxLine)
                  20202768    00000010     app_image_store.o (.bss.gFileName)
                  20202778    0000000b     bsp_jy61.o (.bss.gLastFrame)
                  20202783    00000001     app_menu.o (.bss.app_menu_update.previousDownPressed)
                  20202784    00000009     bsp_jy61.o (.bss.gPayload)
                  2020278d    00000001     app_menu.o (.bss.app_menu_update.previousUpPressed)
                  2020278e    00000008     bsp_jy61.o (.bss.gQuatRaw)
                  20202796    00000002     app_image_store.o (.bss.gHeight)
                  20202798    00000004     bsp_jy61.o (.bss.gAngleFrameCount)
                  2020279c    00000004     app_motion_control.o (.bss.gAngularSpeedDegS)
                  202027a0    00000004     app_menu.o (.bss.gBackOkKey.2)
                  202027a4    00000004     bsp_jy61.o (.bss.gByteCount)
                  202027a8    00000004     bsp_jy61.o (.bss.gChecksumFailCount)
                  202027ac    00000004     app_image_store.o (.bss.gDataAddress)
                  202027b0    00000004     app_image_store.o (.bss.gExpectedCrc)
                  202027b4    00000004     app_image_store.o (.bss.gExpectedSize)
                  202027b8    00000004     app_car_control.o (.bss.gFilteredLeftSpeed)
                  202027bc    00000004     app_car_control.o (.bss.gFilteredRightSpeed)
                  202027c0    00000004     bsp_jy61.o (.bss.gIrqCount)
                  202027c4    00000004     app_car_control.o (.bss.gLTurnDirection)
                  202027c8    00000004     app_car_control.o (.bss.gLTurnStartLeftCount)
                  202027cc    00000004     app_car_control.o (.bss.gLTurnStartRightCount)
                  202027d0    00000004     app_car_control.o (.bss.gLTurnTargetCounts)
                  202027d4    00000004     app_car_control.o (.bss.gLastLeftDelta)
                  202027d8    00000004     app_car_control.o (.bss.gLastLeftOutput)
                  202027dc    00000004     app_car_control.o (.bss.gLastLeftTargetSpeed)
                  202027e0    00000004     app_line_follow.o (.bss.gLastLineMs)
                  202027e4    00000004     app_car_control.o (.bss.gLastPidError)
                  202027e8    00000004     app_car_control.o (.bss.gLastRightDelta)
                  202027ec    00000004     app_car_control.o (.bss.gLastRightOutput)
                  202027f0    00000004     app_car_control.o (.bss.gLastRightTargetSpeed)
                  202027f4    00000004     app_menu.o (.bss.gLastStatusRefreshMs)
                  202027f8    00000004     app_car_control.o (.bss.gLastUpdateMs)
                  202027fc    00000004     hw_encoder.o (.bss.gLeftEncoderCount)
                  20202800    00000004     app_line_follow.o (.bss.gLineError)
                  20202804    00000004     app_car_control.o (.bss.gLineFollowResumeMs)
                  20202808    00000004     app_motion_control.o (.bss.gLinearSpeedMmS)
                  2020280c    00000004     app_car_control.o (.bss.gManualLeftDutyPercent)
                  20202810    00000004     app_car_control.o (.bss.gManualPulseStopMs)
                  20202814    00000004     app_car_control.o (.bss.gManualRightDutyPercent)
                  20202818    00000004     hw_openmv_uart.o (.bss.gOpenmvRxDroppedBytes)
                  2020281c    00000004     bsp_jy61.o (.bss.gPollCount)
                  20202820    00000004     app_car_control.o (.bss.gPreviousLeftCount)
                  20202824    00000004     app_car_control.o (.bss.gPreviousRightCount)
                  20202828    00000004     bsp_jy61.o (.bss.gQuatFrameCount)
                  2020282c    00000004     app_image_store.o (.bss.gReceivedSize)
                  20202830    00000004     hw_encoder.o (.bss.gRightEncoderCount)
                  20202834    00000004     app_image_store.o (.bss.gRunningCrc)
                  20202838    00000004     app_image_store.o (.bss.gRxLength)
                  2020283c    00000004     app_car_control.o (.bss.gSpeedTargetCounts)
                  20202840    00000004     app_motion_control.o (.bss.gStartLeftCount)
                  20202844    00000004     app_motion_control.o (.bss.gStartRightCount)
                  20202848    00000004     main.o (.bss.gSysTickMs)
                  2020284c    00000004     app_motion_control.o (.bss.gTargetCounts)
                  20202850    00000004     app_car_control.o (.bss.gTargetManualLeftDutyPercent)
                  20202854    00000004     app_car_control.o (.bss.gTargetManualRightDutyPercent)
                  20202858    00000004     app_car_control.o (.bss.gTargetSpeedCounts)
                  2020285c    00000004     hw_uart.o (.bss.gUartRxDroppedBytes)
                  20202860    00000004     hw_uart.o (.bss.gUartTxDroppedBytes)
                  20202864    00000004     app_image_store.o (.bss.gWriteAddress)
                  20202868    00000004     hw_uart.o (.bss.uart_debug_read_line.rxIndex)
                  2020286c    00000004     hw_openmv_uart.o (.bss.uart_openmv_read_line.rxIndex)
                  20202870    00000002     hw_openmv_uart.o (.bss.gOpenmvRxHead)
                  20202872    00000002     hw_openmv_uart.o (.bss.gOpenmvRxTail)
                  20202874    00000002     bsp_jy61.o (.bss.gPitchRaw)
                  20202876    00000002     bsp_jy61.o (.bss.gRollRaw)
                  20202878    00000002     hw_uart.o (.bss.gUartRxHead)
                  2020287a    00000002     hw_uart.o (.bss.gUartRxTail)
                  2020287c    00000002     hw_uart.o (.bss.gUartTxHead)
                  2020287e    00000002     hw_uart.o (.bss.gUartTxTail)
                  20202880    00000002     app_image_store.o (.bss.gWidth)
                  20202882    00000002     bsp_jy61.o (.bss.gYawRaw)
                  20202884    00000001     bsp_jy61.o (.bss.gAngleValid)
                  20202885    00000001     main.o (.bss.gAttitudeUpdatePending)
                  20202886    00000001     app_menu.o (.bss.gBackOkKey.1)
                  20202887    00000001     app_motion_control.o (.bss.gBusy)
                  20202888    00000001     app_menu.o (.bss.gBackOkKey.0)
                  20202889    00000001     app_menu.o (.bss.gControlSelected)
                  2020288a    00000001     main.o (.bss.gControlUpdatePending)
                  2020288b    00000001     app_image_store.o (.bss.gFileId)
                  2020288c    00000001     app_menu.o (.bss.gFileSelected)
                  2020288d    00000001     bsp_jy61.o (.bss.gFrameType)
                  2020288e    00000001     main.o (.bss.gHeartbeatUpdatePending)
                  2020288f    00000001     app_attitude.o (.bss.gJy61Ready)
                  20202890    00000001     app_car_control.o (.bss.gLTurnActive)
                  20202891    00000001     bsp_jy61.o (.bss.gLastFrameType)
                  20202892    00000001     app_line_follow.o (.bss.gLineEnabled)
                  20202893    00000001     app_line_follow.o (.bss.gLineValid)
                  20202894    00000001     app_car_control.o (.bss.gManualMotorMode)
                  20202895    00000001     main.o (.bss.gMenuUpdatePending)
                  20202896    00000001     app_motion_control.o (.bss.gMode)
                  20202897    00000001     bsp_jy61.o (.bss.gPayloadIndex)
                  20202898    00000001     bsp_jy61.o (.bss.gQuatValid)
                  20202899    00000001     app_image_store.o (.bss.gReceiving)
                  2020289a    00000001     app_menu.o (.bss.gRootSelected)
                  2020289b    00000001     bsp_jy61.o (.bss.gRxState)
                  2020289c    00000001     main.o (.bss.gStatusLedUpdatePending)
                  2020289d    00000001     app_car_control.o (.bss.gTelemetryEnabled)
                  2020289e    00000001     main.o (.bss.gTelemetryUpdatePending)

.data      0    202028a0    0000000c     UNINITIALIZED
                  202028a0    00000004     libc.a : aeabi_portable.c.obj (.data.__aeabi_errno)
                  202028a4    00000004     bsp_jy61.o (.data.gBaudRate)
                  202028a8    00000001     app_menu.o (.data.gDirty)
                  202028a9    00000001     app_menu.o (.data.gPage)
                  202028aa    00000001     app_menu.o (.data.gRenderedPage)
                  202028ab    00000001     app_menu.o (.data.gReturnPage)

.stack     0    20207e00    00000200     UNINITIALIZED
                  20207e00    00000004     libc.a : boot_cortex_m.c.obj (.stack)
                  20207e04    000001fc     --HOLE--

__llvm_prf_cnts 
*          0    20200000    00000000     UNINITIALIZED

__llvm_prf_bits 
*          0    20200000    00000000     UNINITIALIZED

MODULE SUMMARY

       Module                         code    ro data   rw data
       ------                         ----    -------   -------
    .\
       ti_msp_dl_config.o             1156    70        416    
       main.o                         700     28        10     
       startup_mspm0g350x_ticlang.o   6       192       0      
    +--+------------------------------+-------+---------+---------+
       Total:                         1862    290       426    
                                                               
    .\app\
       app_image_store.o              7284    1869      6322   
       app_car_control.o              5410    757       171    
       app_menu.o                     3184    416       51     
       app_attitude.o                 1580    623       1      
       app_motion_control.o           1396    15        22     
       app_line_follow.o              412     6         10     
    +--+------------------------------+-------+---------+---------+
       Total:                         19266   3686      6577   
                                                               
    .\bsp\
       bsp_tb6612.o                   360     0         0      
    +--+------------------------------+-------+---------+---------+
       Total:                         360     0         0      
                                                               
    .\bsp\jy61\
       bsp_jy61.o                     2592    0         68     
    +--+------------------------------+-------+---------+---------+
       Total:                         2592    0         68     
                                                               
    .\hw\
       hw_lcd.o                       3470    13300     0      
       hw_w25q64.o                    4416    0         0      
       hw_uart.o                      692     18        3156   
       hw_openmv_uart.o               316     0         172    
       hw_encoder.o                   268     0         8      
       hw_spi.o                       28      0         0      
    +--+------------------------------+-------+---------+---------+
       Total:                         9190    13318     3336   
                                                               
    .\mid\
       mid_pid.o                      200     0         0      
    +--+------------------------------+-------+---------+---------+
       Total:                         200     0         0      
                                                               
    C:/TI/mspm0_sdk_2_10_00_04/source/ti/driverlib/lib/ticlang/m0p/mspm0g1x0x_g3x0x/driverlib.a
       dl_timer.o                     356     0         0      
       dl_uart.o                      194     0         0      
       dl_spi.o                       86      0         0      
       dl_common.o                    10      0         0      
    +--+------------------------------+-------+---------+---------+
       Total:                         646     0         0      
                                                               
    F:\yingyong\ccs\ccs\tools\compiler\ti-cgt-armllvm_5.1.1.LTS\lib\armv6m-ti-none-eabi/c/libc.a
       _scanfi.c.obj                  3246    26        0      
       _printfi.c.obj                 2282    34        0      
       strtod.c.obj                   960     200       0      
       strtof.c.obj                   856     88        0      
       divdf3_fast.c.obj              732     0         0      
       strtoll.c.obj                  476     0         0      
       muldf3_fast.c.obj              472     0         0      
       strtoull.c.obj                 360     0         0      
       strtol.c.obj                   324     0         0      
       strtoul.c.obj                  300     0         0      
       aeabi_ctype.S.obj              0       257       0      
       s_scalbn.c.obj                 220     0         0      
       sscanf.c.obj                   192     0         0      
       s_scalbnf.c.obj                188     0         0      
       memcpy16.S.obj                 154     0         0      
       snprintf.c.obj                 146     0         0      
       strcmp-armv6m.S.obj            136     0         0      
       copy_decompress_lzss.c.obj     124     0         0      
       memset16.S.obj                 98      0         0      
       atoi.c.obj                     68      0         0      
       autoinit.c.obj                 60      0         0      
       boot_cortex_m.c.obj            40      0         0      
       memccpy.c.obj                  34      0         0      
       copy_decompress_none.c.obj     18      0         0      
       copy_zero_init.c.obj           16      0         0      
       wcslen.c.obj                   16      0         0      
       aeabi_portable.c.obj           8       0         4      
       exit.c.obj                     6       0         0      
       pre_init.c.obj                 4       0         0      
    +--+------------------------------+-------+---------+---------+
       Total:                         11536   605       4      
                                                               
    F:\yingyong\ccs\ccs\tools\compiler\ti-cgt-armllvm_5.1.1.LTS\lib\armv6m-ti-none-eabi/c/libsysbm.a
       hostexit.c.obj                 4       0         0      
    +--+------------------------------+-------+---------+---------+
       Total:                         4       0         0      
                                                               
    F:\yingyong\ccs\ccs\tools\compiler\ti-cgt-armllvm_5.1.1.LTS\lib\armv6m-ti-none-eabi/libclang_rt.builtins.a
       adddf3.S.obj                   402     0         0      
       comparedf2.c.obj               220     0         0      
       addsf3.S.obj                   216     0         0      
       udivmoddi4.S.obj               162     0         0      
       comparesf2.S.obj               140     0         0      
       mulsf3.S.obj                   140     0         0      
       divsf3.S.obj                   130     0         0      
       truncdfsf2.S.obj               116     0         0      
       aeabi_dcmp.S.obj               106     0         0      
       aeabi_fcmp.S.obj               90      0         0      
       aeabi_uidivmod.S.obj           64      0         0      
       floatsisf.S.obj                60      0         0      
       muldsi3.S.obj                  58      0         0      
       fixsfsi.S.obj                  56      0         0      
       fixunssfsi.S.obj               50      0         0      
       floatunsisf.S.obj              40      0         0      
       muldi3.S.obj                   36      0         0      
       ashldi3.S.obj                  30      0         0      
       aeabi_memset.S.obj             26      0         0      
       aeabi_uldivmod.S.obj           20      0         0      
       aeabi_ddiv.c.obj               8       0         0      
       aeabi_dmul.c.obj               8       0         0      
       aeabi_memcpy.S.obj             8       0         0      
       aeabi_div0.c.obj               4       0         0      
    +--+------------------------------+-------+---------+---------+
       Total:                         2190    0         0      
                                                               
       Stack:                         0       0         512    
       Linker Generated:              0       49        0      
    +--+------------------------------+-------+---------+---------+
       Grand Total:                   47846   17948     10923  


LINKER GENERATED COPY TABLES

__TI_cinit_table @ 00010114 records: 2, size/record: 8, table size: 16
	.data: load addr=000100f0, load size=0000000d bytes, run addr=202028a0, run size=0000000c bytes, compression=lzss
	.bss: load addr=0001010c, load size=00000008 bytes, run addr=20200000, run size=0000289f bytes, compression=zero_init


LINKER GENERATED HANDLER TABLE

__TI_handler_table @ 00010100 records: 3, size/record: 4, table size: 12
	index: 0, handler: __TI_decompress_lzss
	index: 1, handler: __TI_decompress_none
	index: 2, handler: __TI_zero_init


FAR CALL TRAMPOLINES

callee name               trampoline name
   callee addr  tramp addr   call addr  call info
--------------  -----------  ---------  ----------------
__aeabi_dcmpeq            $Tramp$TT$L$PI$$__aeabi_dcmpeq
   0000ae99     0000bb44     0000bb42   libc.a : strtod.c.obj (.text.OUTLINED_FUNCTION_1)

[1 trampolines]
[1 trampoline calls]


GLOBAL SYMBOLS: SORTED ALPHABETICALLY BY Name 

address   name                             
-------   ----                             
00008127  ADC0_IRQHandler                  
00008127  ADC1_IRQHandler                  
00008127  AES_IRQHandler                   
0000af51  AO_Control                       
0000ae39  BO_Control                       
0000a2fc  C$$EXIT                          
00008127  CANFD0_IRQHandler                
00008127  DAC0_IRQHandler                  
0000bb09  DL_Common_delayCycles            
0000b295  DL_SPI_init                      
0000b9f1  DL_SPI_setClockConfig            
00009055  DL_Timer_initFourCCPWMMode       
0000b861  DL_Timer_setCaptCompUpdateMethod 
0000b925  DL_Timer_setCaptureCompareOutCtl 
0000ba29  DL_Timer_setCaptureCompareValue  
0000b87d  DL_Timer_setClockConfig          
0000b12d  DL_UART_init                     
0000b899  DL_UART_receiveDataCheck         
0000ba03  DL_UART_setClockConfig           
0000b5dd  DL_UART_transmitDataBlocking     
0000b8b5  DL_UART_transmitDataCheck        
00008127  DMA_IRQHandler                   
00008127  Default_Handler                  
00008127  GROUP0_IRQHandler                
0000bb1d  GROUP1_IRQHandler                
0000a2fd  HOSTexit                         
00008127  HardFault_Handler                
00008127  I2C0_IRQHandler                  
00008127  I2C1_IRQHandler                  
00009a91  LCD_Address_Set                  
000044a1  LCD_Fill                         
00003fc1  LCD_ShowChar                     
0000b0e1  LCD_ShowString                   
0000b93d  LCD_WR_DATA8                     
00008127  NMI_Handler                      
00008127  PendSV_Handler                   
00008127  RTC_IRQHandler                   
0000bbb7  Reset_Handler                    
00008127  SPI0_IRQHandler                  
00008127  SPI1_IRQHandler                  
00008127  SVC_Handler                      
00009259  SYSCFG_DL_GPIO_init              
0000aa85  SYSCFG_DL_PWM_LEFT_init          
0000aaf1  SYSCFG_DL_PWM_RIGHT_init         
0000b175  SYSCFG_DL_SPI_LCD_init           
0000b361  SYSCFG_DL_SYSCTL_init            
0000a40d  SYSCFG_DL_UART_DEBUG_init        
0000a489  SYSCFG_DL_UART_JY61P_init        
0000a505  SYSCFG_DL_UART_OPENMV_init       
0000b1bd  SYSCFG_DL_init                   
0000a8c5  SYSCFG_DL_initPower              
000096dd  SysTick_Handler                  
0000ad71  TB6612_Init                      
0000affd  TB6612_Motor_Stop                
00008127  TIMA0_IRQHandler                 
00008127  TIMA1_IRQHandler                 
00008127  TIMG0_IRQHandler                 
00008127  TIMG12_IRQHandler                
00008127  TIMG6_IRQHandler                 
00008127  TIMG7_IRQHandler                 
00008127  TIMG8_IRQHandler                 
0000bb5d  UART0_IRQHandler                 
0000bb65  UART1_IRQHandler                 
0000bb6d  UART2_IRQHandler                 
00008127  UART3_IRQHandler                 
20208000  __STACK_END                      
00000200  __STACK_SIZE                     
00000000  __TI_ATRegion0_region_sz         
00000000  __TI_ATRegion0_src_addr          
00000000  __TI_ATRegion0_trg_addr          
00000000  __TI_ATRegion1_region_sz         
00000000  __TI_ATRegion1_src_addr          
00000000  __TI_ATRegion1_trg_addr          
00000000  __TI_ATRegion2_region_sz         
00000000  __TI_ATRegion2_src_addr          
00000000  __TI_ATRegion2_trg_addr          
00010114  __TI_CINIT_Base                  
00010124  __TI_CINIT_Limit                 
00010124  __TI_CINIT_Warm                  
00010100  __TI_Handler_Table_Base          
0001010c  __TI_Handler_Table_Limit         
0000b41d  __TI_auto_init_nobinit_nopinit   
0000a5fd  __TI_decompress_lzss             
0000ba15  __TI_decompress_none             
ffffffff  __TI_pprof_out_hndl              
00000d49  __TI_printfi_nofloat             
ffffffff  __TI_prof_data_size              
ffffffff  __TI_prof_data_start             
000000c1  __TI_scanfi                      
00000000  __TI_static_base__               
0000ba89  __TI_zero_init                   
00007f9f  __adddf3                         
0000960f  __addsf3                         
0000f3c0  __aeabi_ctype_table_             
0000f3c0  __aeabi_ctype_table_C            
0000a851  __aeabi_d2f                      
00007f9f  __aeabi_dadd                     
0000ae99  __aeabi_dcmpeq                   
0000aecf  __aeabi_dcmpge                   
0000aee1  __aeabi_dcmpgt                   
0000aebd  __aeabi_dcmple                   
0000aeab  __aeabi_dcmplt                   
0000bb75  __aeabi_ddiv_fast                
0000bb7d  __aeabi_dmul_fast                
00007f95  __aeabi_dsub                     
202028a0  __aeabi_errno                    
0000bb85  __aeabi_errno_addr               
0000b509  __aeabi_f2iz                     
0000b5a9  __aeabi_f2uiz                    
0000960f  __aeabi_fadd                     
0000aef5  __aeabi_fcmpeq                   
0000af2b  __aeabi_fcmpge                   
0000af3d  __aeabi_fcmpgt                   
0000af19  __aeabi_fcmple                   
0000af07  __aeabi_fcmplt                   
0000a1d3  __aeabi_fcmpun                   
0000a389  __aeabi_fdiv                     
0000a1e9  __aeabi_fmul                     
00009605  __aeabi_fsub                     
0000b459  __aeabi_i2f                      
00009d27  __aeabi_idiv0                    
0000a037  __aeabi_ldiv0                    
0000b841  __aeabi_llsl                     
0000b7d9  __aeabi_lmul                     
0000b917  __aeabi_memclr                   
0000b917  __aeabi_memclr4                  
0000b917  __aeabi_memclr8                  
0000bb9d  __aeabi_memcpy                   
0000bb9d  __aeabi_memcpy4                  
0000bb9d  __aeabi_memcpy8                  
0000b909  __aeabi_memset                   
0000b909  __aeabi_memset4                  
0000b909  __aeabi_memset8                  
0000b769  __aeabi_ui2f                     
0000b3a1  __aeabi_uidiv                    
0000b3a1  __aeabi_uidivmod                 
0000b9dd  __aeabi_uldivmod                 
0000b841  __ashldi3                        
ffffffff  __binit__                        
0000aca1  __cmpdf2                         
0000a15d  __cmpsf2                         
000065e1  __divdf3_fast                    
0000a389  __divsf3                         
0000aca1  __eqdf2                          
0000a15d  __eqsf2                          
0000b509  __fixsfsi                        
0000b5a9  __fixunssfsi                     
0000b459  __floatsisf                      
0000b769  __floatunsisf                    
0000a769  __gedf2                          
0000a197  __gesf2                          
0000a769  __gtdf2                          
0000a197  __gtsf2                          
0000aca1  __ledf2                          
0000a15d  __lesf2                          
0000aca1  __ltdf2                          
0000a15d  __ltsf2                          
UNDEFED   __mpu_init                       
0000769d  __muldf3_fast                    
0000b7d9  __muldi3                         
0000b495  __muldsi3                        
0000a1e9  __mulsf3                         
0000aca1  __nedf2                          
0000a15d  __nesf2                          
20207e00  __stack                          
20200000  __start___llvm_prf_bits          
20200000  __start___llvm_prf_cnts          
20200000  __stop___llvm_prf_bits           
20200000  __stop___llvm_prf_cnts           
00007f95  __subdf3                         
00009605  __subsf3                         
0000a851  __truncdfsf2                     
00009c85  __udivmoddi4                     
0000a1d3  __unordsf2                       
0000b741  _c_int00_noargs                  
UNDEFED   _system_post_cinit               
0000bbbb  _system_pre_init                 
0000bbb1  abort                            
0000b541  app_attitude_init                
0000b9c9  app_attitude_poll                
00006b69  app_attitude_process_command     
00009865  app_attitude_send                
0000ab5d  app_car_control_init             
00002ca5  app_car_control_process_command  
0000b2d9  app_car_control_send_heartbeat   
00006e11  app_car_control_send_telemetry   
0000ba39  app_car_control_toggle_status_led
000039c9  app_car_control_update           
00009445  app_image_store_get_file_by_index
00007de5  app_image_store_get_file_count   
0000bb95  app_image_store_init             
0000baa9  app_image_store_is_receiving     
00001e21  app_image_store_process_command  
00002581  app_image_store_service          
0000a275  app_image_store_show_image       
0000abc9  app_menu_init                    
00004d6d  app_menu_update                  
0000eb40  ascii_1206                       
0000e550  ascii_1608                       
0000d380  ascii_2412                       
0000bbc0  ascii_3216                       
0000b31d  atoi                             
ffffffff  binit                            
0000b96d  encoder_get_counts               
0000a039  encoder_handle_gpio_irq          
0000b205  encoder_init                     
0000b985  encoder_reset                    
20202480  gPWM_LEFTBackup                  
2020253c  gPWM_RIGHTBackup                 
202026b8  gSPI_LCDBackup                   
00000000  interruptVectors                 
00009159  jy61_configure_output            
0000bab5  jy61_get_baudrate                
0000ac35  jy61_handle_irq                  
000099e1  jy61_init                        
0000a935  jy61_poll                        
000068bd  jy61_probe_baudrate              
0000a581  jy61_read_angles                 
000097a1  jy61_read_debug                  
0000ad09  jy61_read_quaternion             
00008a95  jy61_set_baudrate                
00009d29  jy61_zero_yaw                    
000062d5  lcd_init                         
00009529  ldexp                            
00009925  ldexpf                           
00009529  ldexpl                           
0000bac1  line_follow_get_error            
0000a679  line_follow_get_turn_adjust      
0000b791  line_follow_init                 
0000b6c9  line_follow_is_active            
0000b60d  line_follow_is_valid             
00009dc9  line_follow_parse_command        
00007875  main                             
0000b7fd  memccpy                          
00009f9d  memcpy                           
0000add5  memset                           
0000bacd  motion_control_get_mode          
0000ba49  motion_control_get_target_deg_s  
0000ba59  motion_control_get_target_mm_s   
0000b3e1  motion_control_init              
0000ba69  motion_control_is_active         
0000bad9  motion_control_is_busy           
00005175  motion_control_parse_command     
00008955  motion_control_update            
00009b3d  pid_calc                         
0000b99d  pid_init                         
0000bae5  pid_reset                        
00009529  scalbn                           
00009925  scalbnf                          
00009529  scalbnl                          
0000b24d  snprintf                         
0000b8d1  spi_write_bus                    
0000b66d  sscanf                           
0000a301  strcmp                           
00005525  strtod                           
00005f85  strtof                           
00008811  strtol                           
00005525  strtold                          
000074c1  strtoll                          
00008d01  strtoul                          
000082a5  strtoull                         
0000baf1  uart_debug_get_rx_dropped_bytes  
0000bafd  uart_debug_get_tx_dropped_bytes  
0000a9a5  uart_debug_handle_irq            
0000b6f1  uart_debug_init                  
0000b4d1  uart_debug_read_byte             
00008bcd  uart_debug_read_line             
0000b049  uart_debug_service_tx            
0000b095  uart_debug_write_string          
0000aa15  uart_openmv_handle_irq           
0000b719  uart_openmv_init                 
00009be1  uart_openmv_read_line            
00007a4d  w25q64_erase_sector              
0000b8ed  w25q64_init                      
0000b7b5  w25q64_is_valid_jedec_id         
00007079  w25q64_read                      
00004935  w25q64_read_jedec_id             
000058d5  w25q64_write                     
0000ba79  wcslen                           


GLOBAL SYMBOLS: SORTED BY Symbol Address 

address   name                             
-------   ----                             
00000000  __TI_ATRegion0_region_sz         
00000000  __TI_ATRegion0_src_addr          
00000000  __TI_ATRegion0_trg_addr          
00000000  __TI_ATRegion1_region_sz         
00000000  __TI_ATRegion1_src_addr          
00000000  __TI_ATRegion1_trg_addr          
00000000  __TI_ATRegion2_region_sz         
00000000  __TI_ATRegion2_src_addr          
00000000  __TI_ATRegion2_trg_addr          
00000000  __TI_static_base__               
00000000  interruptVectors                 
000000c1  __TI_scanfi                      
00000200  __STACK_SIZE                     
00000d49  __TI_printfi_nofloat             
00001e21  app_image_store_process_command  
00002581  app_image_store_service          
00002ca5  app_car_control_process_command  
000039c9  app_car_control_update           
00003fc1  LCD_ShowChar                     
000044a1  LCD_Fill                         
00004935  w25q64_read_jedec_id             
00004d6d  app_menu_update                  
00005175  motion_control_parse_command     
00005525  strtod                           
00005525  strtold                          
000058d5  w25q64_write                     
00005f85  strtof                           
000062d5  lcd_init                         
000065e1  __divdf3_fast                    
000068bd  jy61_probe_baudrate              
00006b69  app_attitude_process_command     
00006e11  app_car_control_send_telemetry   
00007079  w25q64_read                      
000074c1  strtoll                          
0000769d  __muldf3_fast                    
00007875  main                             
00007a4d  w25q64_erase_sector              
00007de5  app_image_store_get_file_count   
00007f95  __aeabi_dsub                     
00007f95  __subdf3                         
00007f9f  __adddf3                         
00007f9f  __aeabi_dadd                     
00008127  ADC0_IRQHandler                  
00008127  ADC1_IRQHandler                  
00008127  AES_IRQHandler                   
00008127  CANFD0_IRQHandler                
00008127  DAC0_IRQHandler                  
00008127  DMA_IRQHandler                   
00008127  Default_Handler                  
00008127  GROUP0_IRQHandler                
00008127  HardFault_Handler                
00008127  I2C0_IRQHandler                  
00008127  I2C1_IRQHandler                  
00008127  NMI_Handler                      
00008127  PendSV_Handler                   
00008127  RTC_IRQHandler                   
00008127  SPI0_IRQHandler                  
00008127  SPI1_IRQHandler                  
00008127  SVC_Handler                      
00008127  TIMA0_IRQHandler                 
00008127  TIMA1_IRQHandler                 
00008127  TIMG0_IRQHandler                 
00008127  TIMG12_IRQHandler                
00008127  TIMG6_IRQHandler                 
00008127  TIMG7_IRQHandler                 
00008127  TIMG8_IRQHandler                 
00008127  UART3_IRQHandler                 
000082a5  strtoull                         
00008811  strtol                           
00008955  motion_control_update            
00008a95  jy61_set_baudrate                
00008bcd  uart_debug_read_line             
00008d01  strtoul                          
00009055  DL_Timer_initFourCCPWMMode       
00009159  jy61_configure_output            
00009259  SYSCFG_DL_GPIO_init              
00009445  app_image_store_get_file_by_index
00009529  ldexp                            
00009529  ldexpl                           
00009529  scalbn                           
00009529  scalbnl                          
00009605  __aeabi_fsub                     
00009605  __subsf3                         
0000960f  __addsf3                         
0000960f  __aeabi_fadd                     
000096dd  SysTick_Handler                  
000097a1  jy61_read_debug                  
00009865  app_attitude_send                
00009925  ldexpf                           
00009925  scalbnf                          
000099e1  jy61_init                        
00009a91  LCD_Address_Set                  
00009b3d  pid_calc                         
00009be1  uart_openmv_read_line            
00009c85  __udivmoddi4                     
00009d27  __aeabi_idiv0                    
00009d29  jy61_zero_yaw                    
00009dc9  line_follow_parse_command        
00009f9d  memcpy                           
0000a037  __aeabi_ldiv0                    
0000a039  encoder_handle_gpio_irq          
0000a15d  __cmpsf2                         
0000a15d  __eqsf2                          
0000a15d  __lesf2                          
0000a15d  __ltsf2                          
0000a15d  __nesf2                          
0000a197  __gesf2                          
0000a197  __gtsf2                          
0000a1d3  __aeabi_fcmpun                   
0000a1d3  __unordsf2                       
0000a1e9  __aeabi_fmul                     
0000a1e9  __mulsf3                         
0000a275  app_image_store_show_image       
0000a2fc  C$$EXIT                          
0000a2fd  HOSTexit                         
0000a301  strcmp                           
0000a389  __aeabi_fdiv                     
0000a389  __divsf3                         
0000a40d  SYSCFG_DL_UART_DEBUG_init        
0000a489  SYSCFG_DL_UART_JY61P_init        
0000a505  SYSCFG_DL_UART_OPENMV_init       
0000a581  jy61_read_angles                 
0000a5fd  __TI_decompress_lzss             
0000a679  line_follow_get_turn_adjust      
0000a769  __gedf2                          
0000a769  __gtdf2                          
0000a851  __aeabi_d2f                      
0000a851  __truncdfsf2                     
0000a8c5  SYSCFG_DL_initPower              
0000a935  jy61_poll                        
0000a9a5  uart_debug_handle_irq            
0000aa15  uart_openmv_handle_irq           
0000aa85  SYSCFG_DL_PWM_LEFT_init          
0000aaf1  SYSCFG_DL_PWM_RIGHT_init         
0000ab5d  app_car_control_init             
0000abc9  app_menu_init                    
0000ac35  jy61_handle_irq                  
0000aca1  __cmpdf2                         
0000aca1  __eqdf2                          
0000aca1  __ledf2                          
0000aca1  __ltdf2                          
0000aca1  __nedf2                          
0000ad09  jy61_read_quaternion             
0000ad71  TB6612_Init                      
0000add5  memset                           
0000ae39  BO_Control                       
0000ae99  __aeabi_dcmpeq                   
0000aeab  __aeabi_dcmplt                   
0000aebd  __aeabi_dcmple                   
0000aecf  __aeabi_dcmpge                   
0000aee1  __aeabi_dcmpgt                   
0000aef5  __aeabi_fcmpeq                   
0000af07  __aeabi_fcmplt                   
0000af19  __aeabi_fcmple                   
0000af2b  __aeabi_fcmpge                   
0000af3d  __aeabi_fcmpgt                   
0000af51  AO_Control                       
0000affd  TB6612_Motor_Stop                
0000b049  uart_debug_service_tx            
0000b095  uart_debug_write_string          
0000b0e1  LCD_ShowString                   
0000b12d  DL_UART_init                     
0000b175  SYSCFG_DL_SPI_LCD_init           
0000b1bd  SYSCFG_DL_init                   
0000b205  encoder_init                     
0000b24d  snprintf                         
0000b295  DL_SPI_init                      
0000b2d9  app_car_control_send_heartbeat   
0000b31d  atoi                             
0000b361  SYSCFG_DL_SYSCTL_init            
0000b3a1  __aeabi_uidiv                    
0000b3a1  __aeabi_uidivmod                 
0000b3e1  motion_control_init              
0000b41d  __TI_auto_init_nobinit_nopinit   
0000b459  __aeabi_i2f                      
0000b459  __floatsisf                      
0000b495  __muldsi3                        
0000b4d1  uart_debug_read_byte             
0000b509  __aeabi_f2iz                     
0000b509  __fixsfsi                        
0000b541  app_attitude_init                
0000b5a9  __aeabi_f2uiz                    
0000b5a9  __fixunssfsi                     
0000b5dd  DL_UART_transmitDataBlocking     
0000b60d  line_follow_is_valid             
0000b66d  sscanf                           
0000b6c9  line_follow_is_active            
0000b6f1  uart_debug_init                  
0000b719  uart_openmv_init                 
0000b741  _c_int00_noargs                  
0000b769  __aeabi_ui2f                     
0000b769  __floatunsisf                    
0000b791  line_follow_init                 
0000b7b5  w25q64_is_valid_jedec_id         
0000b7d9  __aeabi_lmul                     
0000b7d9  __muldi3                         
0000b7fd  memccpy                          
0000b841  __aeabi_llsl                     
0000b841  __ashldi3                        
0000b861  DL_Timer_setCaptCompUpdateMethod 
0000b87d  DL_Timer_setClockConfig          
0000b899  DL_UART_receiveDataCheck         
0000b8b5  DL_UART_transmitDataCheck        
0000b8d1  spi_write_bus                    
0000b8ed  w25q64_init                      
0000b909  __aeabi_memset                   
0000b909  __aeabi_memset4                  
0000b909  __aeabi_memset8                  
0000b917  __aeabi_memclr                   
0000b917  __aeabi_memclr4                  
0000b917  __aeabi_memclr8                  
0000b925  DL_Timer_setCaptureCompareOutCtl 
0000b93d  LCD_WR_DATA8                     
0000b96d  encoder_get_counts               
0000b985  encoder_reset                    
0000b99d  pid_init                         
0000b9c9  app_attitude_poll                
0000b9dd  __aeabi_uldivmod                 
0000b9f1  DL_SPI_setClockConfig            
0000ba03  DL_UART_setClockConfig           
0000ba15  __TI_decompress_none             
0000ba29  DL_Timer_setCaptureCompareValue  
0000ba39  app_car_control_toggle_status_led
0000ba49  motion_control_get_target_deg_s  
0000ba59  motion_control_get_target_mm_s   
0000ba69  motion_control_is_active         
0000ba79  wcslen                           
0000ba89  __TI_zero_init                   
0000baa9  app_image_store_is_receiving     
0000bab5  jy61_get_baudrate                
0000bac1  line_follow_get_error            
0000bacd  motion_control_get_mode          
0000bad9  motion_control_is_busy           
0000bae5  pid_reset                        
0000baf1  uart_debug_get_rx_dropped_bytes  
0000bafd  uart_debug_get_tx_dropped_bytes  
0000bb09  DL_Common_delayCycles            
0000bb1d  GROUP1_IRQHandler                
0000bb5d  UART0_IRQHandler                 
0000bb65  UART1_IRQHandler                 
0000bb6d  UART2_IRQHandler                 
0000bb75  __aeabi_ddiv_fast                
0000bb7d  __aeabi_dmul_fast                
0000bb85  __aeabi_errno_addr               
0000bb95  app_image_store_init             
0000bb9d  __aeabi_memcpy                   
0000bb9d  __aeabi_memcpy4                  
0000bb9d  __aeabi_memcpy8                  
0000bbb1  abort                            
0000bbb7  Reset_Handler                    
0000bbbb  _system_pre_init                 
0000bbc0  ascii_3216                       
0000d380  ascii_2412                       
0000e550  ascii_1608                       
0000eb40  ascii_1206                       
0000f3c0  __aeabi_ctype_table_             
0000f3c0  __aeabi_ctype_table_C            
00010100  __TI_Handler_Table_Base          
0001010c  __TI_Handler_Table_Limit         
00010114  __TI_CINIT_Base                  
00010124  __TI_CINIT_Limit                 
00010124  __TI_CINIT_Warm                  
20200000  __start___llvm_prf_bits          
20200000  __start___llvm_prf_cnts          
20200000  __stop___llvm_prf_bits           
20200000  __stop___llvm_prf_cnts           
20202480  gPWM_LEFTBackup                  
2020253c  gPWM_RIGHTBackup                 
202026b8  gSPI_LCDBackup                   
202028a0  __aeabi_errno                    
20207e00  __stack                          
20208000  __STACK_END                      
ffffffff  __TI_pprof_out_hndl              
ffffffff  __TI_prof_data_size              
ffffffff  __TI_prof_data_start             
ffffffff  __binit__                        
ffffffff  binit                            
UNDEFED   __mpu_init                       
UNDEFED   _system_post_cinit               

[279 symbols]
